target datalayout = "e-m:e-p270:32:32-p271:32:32-p272:64:64-i64:64-i128:128-f80:128-n8:16:32:64-S128"
target triple = "x86_64-pc-linux-gnu"

@.str.1 = private unnamed_addr constant [6 x i8] c"%d.%d\00", align 1
@.str.2 = private unnamed_addr constant [3 x i8] c"%d\00", align 1
@.str.3 = private unnamed_addr constant [9 x i8] c"%d.%d.%d\00", align 1

; Function Attrs: nounwind uwtable
define dso_local ptr @formatPGVersionNumber(i32 noundef %0, i1 noundef zeroext %1, ptr noundef %2, i64 noundef %3) #0 {
  %5 = alloca i32, align 4
  %6 = alloca i8, align 1
  %7 = alloca ptr, align 8
  %8 = alloca i64, align 8
  store i32 %0, ptr %5, align 4
  %9 = zext i1 %1 to i8
  store i8 %9, ptr %6, align 1
  store ptr %2, ptr %7, align 8
  store i64 %3, ptr %8, align 8
  %10 = load i32, ptr %5, align 4
  %11 = icmp sge i32 %10, 100000
  br i1 %11, label %12, label %30

12:                                               ; preds = %4
  %13 = load i8, ptr %6, align 1, !range !6, !noundef !7
  %14 = trunc i8 %13 to i1
  br i1 %14, label %15, label %23

15:                                               ; preds = %12
  %16 = load ptr, ptr %7, align 8
  %17 = load i64, ptr %8, align 8
  %18 = load i32, ptr %5, align 4
  %19 = sdiv i32 %18, 10000
  %20 = load i32, ptr %5, align 4
  %21 = srem i32 %20, 10000
  %22 = call i32 (ptr, i64, ptr, ...) @pg_snprintf(ptr noundef %16, i64 noundef %17, ptr noundef @.str.1, i32 noundef %19, i32 noundef %21)
  br label %29

23:                                               ; preds = %12
  %24 = load ptr, ptr %7, align 8
  %25 = load i64, ptr %8, align 8
  %26 = load i32, ptr %5, align 4
  %27 = sdiv i32 %26, 10000
  %28 = call i32 (ptr, i64, ptr, ...) @pg_snprintf(ptr noundef %24, i64 noundef %25, ptr noundef @.str.2, i32 noundef %27)
  br label %29

29:                                               ; preds = %23, %15
  br label %54

30:                                               ; preds = %4
  %31 = load i8, ptr %6, align 1, !range !6, !noundef !7
  %32 = trunc i8 %31 to i1
  br i1 %32, label %33, label %44

33:                                               ; preds = %30
  %34 = load ptr, ptr %7, align 8
  %35 = load i64, ptr %8, align 8
  %36 = load i32, ptr %5, align 4
  %37 = sdiv i32 %36, 10000
  %38 = load i32, ptr %5, align 4
  %39 = sdiv i32 %38, 100
  %40 = srem i32 %39, 100
  %41 = load i32, ptr %5, align 4
  %42 = srem i32 %41, 100
  %43 = call i32 (ptr, i64, ptr, ...) @pg_snprintf(ptr noundef %34, i64 noundef %35, ptr noundef @.str.3, i32 noundef %37, i32 noundef %40, i32 noundef %42)
  br label %53

44:                                               ; preds = %30
  %45 = load ptr, ptr %7, align 8
  %46 = load i64, ptr %8, align 8
  %47 = load i32, ptr %5, align 4
  %48 = sdiv i32 %47, 10000
  %49 = load i32, ptr %5, align 4
  %50 = sdiv i32 %49, 100
  %51 = srem i32 %50, 100
  %52 = call i32 (ptr, i64, ptr, ...) @pg_snprintf(ptr noundef %45, i64 noundef %46, ptr noundef @.str.1, i32 noundef %48, i32 noundef %51)
  br label %53

53:                                               ; preds = %44, %33
  br label %54

54:                                               ; preds = %53, %29
  %55 = load ptr, ptr %7, align 8
  ret ptr %55
}