; Function Attrs: nounwind uwtable
define dso_local noundef ptr @formatPGVersionNumber(i32 noundef %0, i1 noundef zeroext %1, ptr noundef returned %2, i64 noundef %3) local_unnamed_addr #0 {
  %5 = icmp sgt i32 %0, 99999
  br i1 %5, label %6, label %13

6:                                                ; preds = %4
  %7 = udiv i32 %0, 10000
  %8 = urem i32 %0, 10000
  br i1 %1, label %9, label %11

9:                                                ; preds = %6
  %10 = tail call i32 (ptr, i64, ptr, ...) @pg_snprintf(ptr noundef %2, i64 noundef %3, ptr noundef nonnull @.str.1, i32 noundef %7, i32 noundef %8) #11
  br label %22

11:                                               ; preds = %6
  %12 = tail call i32 (ptr, i64, ptr, ...) @pg_snprintf(ptr noundef %2, i64 noundef %3, ptr noundef nonnull @.str.2, i32 noundef %7) #11
  br label %22

13:                                               ; preds = %4
  %14 = sdiv i32 %0, 10000
  %15 = sdiv i32 %0, 100
  %16 = srem i32 %0, 100
  %17 = srem i32 %15, 100
  br i1 %1, label %18, label %20

18:                                               ; preds = %13
  %19 = tail call i32 (ptr, i64, ptr, ...) @pg_snprintf(ptr noundef %2, i64 noundef %3, ptr noundef nonnull @.str.3, i32 noundef %14, i32 noundef %17, i32 noundef %16) #11
  br label %22

20:                                               ; preds = %13
  %21 = tail call i32 (ptr, i64, ptr, ...) @pg_snprintf(ptr noundef %2, i64 noundef %3, ptr noundef nonnull @.str.1, i32 noundef %14, i32 noundef %17) #11
  br label %22

22:                                               ; preds = %18, %20, %9, %11
  ret ptr %2
}